; ModuleID = '27/1646.c'
source_filename = "27/1646.c"
target datalayout = "e-m:e-p270:32:32-p271:32:32-p272:64:64-i64:64-f80:128-n8:16:32:64-S128"
target triple = "x86_64-pc-linux-gnu"

@.str = private unnamed_addr constant [3 x i8] c"%d\00", align 1
@.str.1 = private unnamed_addr constant [10 x i8] c"%lf%lf%lf\00", align 1
@.str.2 = private unnamed_addr constant [12 x i8] c"x1=x2=%.5f\0A\00", align 1
@.str.3 = private unnamed_addr constant [17 x i8] c"x1=%.5f;x2=%.5f\0A\00", align 1
@.str.4 = private unnamed_addr constant [29 x i8] c"x1=%.5f+%.5fi;x2=%.5f-%.5fi\0A\00", align 1

; Function Attrs: noinline nounwind uwtable
define dso_local i32 @main() #0 {
  %1 = alloca i32, align 4
  %2 = alloca i32, align 4
  %3 = alloca i32, align 4
  %4 = alloca double, align 8
  %5 = alloca double, align 8
  %6 = alloca double, align 8
  %7 = alloca [100 x double], align 16
  %8 = alloca [100 x double], align 16
  %9 = alloca [100 x double], align 16
  %10 = alloca [100 x double], align 16
  store i32 0, i32* %1, align 4
  %11 = call i32 (i8*, ...) @__isoc99_scanf(i8* getelementptr inbounds ([3 x i8], [3 x i8]* @.str, i64 0, i64 0), i32* %2)
  store i32 1, i32* %3, align 4
  br label %12

12:                                               ; preds = %139, %0
  %13 = load i32, i32* %3, align 4
  %14 = load i32, i32* %2, align 4
  %15 = icmp sle i32 %13, %14
  br i1 %15, label %16, label %142

16:                                               ; preds = %12
  %17 = call i32 (i8*, ...) @__isoc99_scanf(i8* getelementptr inbounds ([10 x i8], [10 x i8]* @.str.1, i64 0, i64 0), double* %4, double* %5, double* %6)
  %18 = load double, double* %5, align 8
  %19 = load double, double* %5, align 8
  %20 = fmul double %18, %19
  %21 = load double, double* %4, align 8
  %22 = fmul double 4.000000e+00, %21
  %23 = load double, double* %6, align 8
  %24 = fmul double %22, %23
  %25 = fsub double %20, %24
  %26 = fcmp oeq double %25, 0.000000e+00
  br i1 %26, label %27, label %42

27:                                               ; preds = %16
  %28 = load double, double* %5, align 8
  %29 = fneg double %28
  %30 = load double, double* %4, align 8
  %31 = fmul double 2.000000e+00, %30
  %32 = fdiv double %29, %31
  %33 = load i32, i32* %3, align 4
  %34 = sext i32 %33 to i64
  %35 = getelementptr inbounds [100 x double], [100 x double]* %8, i64 0, i64 %34
  store double %32, double* %35, align 8
  %36 = load i32, i32* %3, align 4
  %37 = sext i32 %36 to i64
  %38 = getelementptr inbounds [100 x double], [100 x double]* %7, i64 0, i64 %37
  store double %32, double* %38, align 8
  %39 = load i32, i32* %3, align 4
  %40 = sext i32 %39 to i64
  %41 = getelementptr inbounds [100 x double], [100 x double]* %10, i64 0, i64 %40
  store double 0.000000e+00, double* %41, align 8
  br label %138

42:                                               ; preds = %16
  %43 = load double, double* %5, align 8
  %44 = load double, double* %5, align 8
  %45 = fmul double %43, %44
  %46 = load double, double* %4, align 8
  %47 = fmul double 4.000000e+00, %46
  %48 = load double, double* %6, align 8
  %49 = fmul double %47, %48
  %50 = fsub double %45, %49
  %51 = fcmp ogt double %50, 0.000000e+00
  br i1 %51, label %52, label %92

52:                                               ; preds = %42
  %53 = load double, double* %5, align 8
  %54 = fneg double %53
  %55 = load double, double* %5, align 8
  %56 = load double, double* %5, align 8
  %57 = fmul double %55, %56
  %58 = load double, double* %4, align 8
  %59 = fmul double 4.000000e+00, %58
  %60 = load double, double* %6, align 8
  %61 = fmul double %59, %60
  %62 = fsub double %57, %61
  %63 = call double @sqrt(double %62) #3
  %64 = fadd double %54, %63
  %65 = load double, double* %4, align 8
  %66 = fmul double 2.000000e+00, %65
  %67 = fdiv double %64, %66
  %68 = load i32, i32* %3, align 4
  %69 = sext i32 %68 to i64
  %70 = getelementptr inbounds [100 x double], [100 x double]* %7, i64 0, i64 %69
  store double %67, double* %70, align 8
  %71 = load double, double* %5, align 8
  %72 = fneg double %71
  %73 = load double, double* %5, align 8
  %74 = load double, double* %5, align 8
  %75 = fmul double %73, %74
  %76 = load double, double* %4, align 8
  %77 = fmul double 4.000000e+00, %76
  %78 = load double, double* %6, align 8
  %79 = fmul double %77, %78
  %80 = fsub double %75, %79
  %81 = call double @sqrt(double %80) #3
  %82 = fsub double %72, %81
  %83 = load double, double* %4, align 8
  %84 = fmul double 2.000000e+00, %83
  %85 = fdiv double %82, %84
  %86 = load i32, i32* %3, align 4
  %87 = sext i32 %86 to i64
  %88 = getelementptr inbounds [100 x double], [100 x double]* %8, i64 0, i64 %87
  store double %85, double* %88, align 8
  %89 = load i32, i32* %3, align 4
  %90 = sext i32 %89 to i64
  %91 = getelementptr inbounds [100 x double], [100 x double]* %10, i64 0, i64 %90
  store double 0.000000e+00, double* %91, align 8
  br label %137

92:                                               ; preds = %42
  %93 = load double, double* %5, align 8
  %94 = load double, double* %5, align 8
  %95 = fmul double %93, %94
  %96 = load double, double* %4, align 8
  %97 = fmul double 4.000000e+00, %96
  %98 = load double, double* %6, align 8
  %99 = fmul double %97, %98
  %100 = fsub double %95, %99
  %101 = fcmp olt double %100, 0.000000e+00
  br i1 %101, label %102, label %136

102:                                              ; preds = %92
  %103 = load double, double* %5, align 8
  %104 = fneg double %103
  %105 = load double, double* %4, align 8
  %106 = fmul double 2.000000e+00, %105
  %107 = fdiv double %104, %106
  %108 = load i32, i32* %3, align 4
  %109 = sext i32 %108 to i64
  %110 = getelementptr inbounds [100 x double], [100 x double]* %9, i64 0, i64 %109
  store double %107, double* %110, align 8
  %111 = load i32, i32* %3, align 4
  %112 = sext i32 %111 to i64
  %113 = getelementptr inbounds [100 x double], [100 x double]* %9, i64 0, i64 %112
  %114 = load double, double* %113, align 8
  %115 = fcmp oeq double %114, -0.000000e+00
  br i1 %115, label %116, label %120

116:                                              ; preds = %102
  %117 = load i32, i32* %3, align 4
  %118 = sext i32 %117 to i64
  %119 = getelementptr inbounds [100 x double], [100 x double]* %9, i64 0, i64 %118
  store double 0.000000e+00, double* %119, align 8
  br label %120

120:                                              ; preds = %116, %102
  %121 = load double, double* %4, align 8
  %122 = fmul double 4.000000e+00, %121
  %123 = load double, double* %6, align 8
  %124 = fmul double %122, %123
  %125 = load double, double* %5, align 8
  %126 = load double, double* %5, align 8
  %127 = fmul double %125, %126
  %128 = fsub double %124, %127
  %129 = call double @sqrt(double %128) #3
  %130 = load double, double* %4, align 8
  %131 = fmul double 2.000000e+00, %130
  %132 = fdiv double %129, %131
  %133 = load i32, i32* %3, align 4
  %134 = sext i32 %133 to i64
  %135 = getelementptr inbounds [100 x double], [100 x double]* %10, i64 0, i64 %134
  store double %132, double* %135, align 8
  br label %136

136:                                              ; preds = %120, %92
  br label %137

137:                                              ; preds = %136, %52
  br label %138

138:                                              ; preds = %137, %27
  br label %139

139:                                              ; preds = %138
  %140 = load i32, i32* %3, align 4
  %141 = add nsw i32 %140, 1
  store i32 %141, i32* %3, align 4
  br label %12

142:                                              ; preds = %12
  store i32 1, i32* %3, align 4
  br label %143

143:                                              ; preds = %215, %142
  %144 = load i32, i32* %3, align 4
  %145 = load i32, i32* %2, align 4
  %146 = icmp sle i32 %144, %145
  br i1 %146, label %147, label %218

147:                                              ; preds = %143
  %148 = load i32, i32* %3, align 4
  %149 = sext i32 %148 to i64
  %150 = getelementptr inbounds [100 x double], [100 x double]* %7, i64 0, i64 %149
  %151 = load double, double* %150, align 8
  %152 = load i32, i32* %3, align 4
  %153 = sext i32 %152 to i64
  %154 = getelementptr inbounds [100 x double], [100 x double]* %8, i64 0, i64 %153
  %155 = load double, double* %154, align 8
  %156 = fcmp oeq double %151, %155
  br i1 %156, label %157, label %169

157:                                              ; preds = %147
  %158 = load i32, i32* %3, align 4
  %159 = sext i32 %158 to i64
  %160 = getelementptr inbounds [100 x double], [100 x double]* %10, i64 0, i64 %159
  %161 = load double, double* %160, align 8
  %162 = fcmp oeq double %161, 0.000000e+00
  br i1 %162, label %163, label %169

163:                                              ; preds = %157
  %164 = load i32, i32* %3, align 4
  %165 = sext i32 %164 to i64
  %166 = getelementptr inbounds [100 x double], [100 x double]* %7, i64 0, i64 %165
  %167 = load double, double* %166, align 8
  %168 = call i32 (i8*, ...) @printf(i8* getelementptr inbounds ([12 x i8], [12 x i8]* @.str.2, i64 0, i64 0), double %167)
  br label %214

169:                                              ; preds = %157, %147
  %170 = load i32, i32* %3, align 4
  %171 = sext i32 %170 to i64
  %172 = getelementptr inbounds [100 x double], [100 x double]* %7, i64 0, i64 %171
  %173 = load double, double* %172, align 8
  %174 = load i32, i32* %3, align 4
  %175 = sext i32 %174 to i64
  %176 = getelementptr inbounds [100 x double], [100 x double]* %8, i64 0, i64 %175
  %177 = load double, double* %176, align 8
  %178 = fcmp une double %173, %177
  br i1 %178, label %179, label %195

179:                                              ; preds = %169
  %180 = load i32, i32* %3, align 4
  %181 = sext i32 %180 to i64
  %182 = getelementptr inbounds [100 x double], [100 x double]* %10, i64 0, i64 %181
  %183 = load double, double* %182, align 8
  %184 = fcmp oeq double %183, 0.000000e+00
  br i1 %184, label %185, label %195

185:                                              ; preds = %179
  %186 = load i32, i32* %3, align 4
  %187 = sext i32 %186 to i64
  %188 = getelementptr inbounds [100 x double], [100 x double]* %7, i64 0, i64 %187
  %189 = load double, double* %188, align 8
  %190 = load i32, i32* %3, align 4
  %191 = sext i32 %190 to i64
  %192 = getelementptr inbounds [100 x double], [100 x double]* %8, i64 0, i64 %191
  %193 = load double, double* %192, align 8
  %194 = call i32 (i8*, ...) @printf(i8* getelementptr inbounds ([17 x i8], [17 x i8]* @.str.3, i64 0, i64 0), double %189, double %193)
  br label %213

195:                                              ; preds = %179, %169
  %196 = load i32, i32* %3, align 4
  %197 = sext i32 %196 to i64
  %198 = getelementptr inbounds [100 x double], [100 x double]* %9, i64 0, i64 %197
  %199 = load double, double* %198, align 8
  %200 = load i32, i32* %3, align 4
  %201 = sext i32 %200 to i64
  %202 = getelementptr inbounds [100 x double], [100 x double]* %10, i64 0, i64 %201
  %203 = load double, double* %202, align 8
  %204 = load i32, i32* %3, align 4
  %205 = sext i32 %204 to i64
  %206 = getelementptr inbounds [100 x double], [100 x double]* %9, i64 0, i64 %205
  %207 = load double, double* %206, align 8
  %208 = load i32, i32* %3, align 4
  %209 = sext i32 %208 to i64
  %210 = getelementptr inbounds [100 x double], [100 x double]* %10, i64 0, i64 %209
  %211 = load double, double* %210, align 8
  %212 = call i32 (i8*, ...) @printf(i8* getelementptr inbounds ([29 x i8], [29 x i8]* @.str.4, i64 0, i64 0), double %199, double %203, double %207, double %211)
  br label %213

213:                                              ; preds = %195, %185
  br label %214

214:                                              ; preds = %213, %163
  br label %215

215:                                              ; preds = %214
  %216 = load i32, i32* %3, align 4
  %217 = add nsw i32 %216, 1
  store i32 %217, i32* %3, align 4
  br label %143

218:                                              ; preds = %143
  ret i32 0
}

declare dso_local i32 @__isoc99_scanf(i8*, ...) #1

; Function Attrs: nounwind
declare dso_local double @sqrt(double) #2

declare dso_local i32 @printf(i8*, ...) #1


!llvm.module.flags = !{!0}
!llvm.ident = !{!1}

!0 = !{i32 1, !"wchar_size", i32 4}
!1 = !{!"clang version 10.0.0-4ubuntu1 "}
